; Function Attrs: mustprogress uwtable
define hidden void @_ZN6google8protobuf2io9Tokenizer18ConsumeLineCommentEPNSt7__cxx1112basic_stringIcSt11char_traitsIcESaIcEEE(ptr noundef nonnull align 8 dereferenceable(192) %0, ptr noundef %1) local_unnamed_addr #6 align 2 {
  %.not = icmp eq ptr %1, null
  br i1 %.not, label %8, label %3

3:                                                ; preds = %2
  %4 = getelementptr inbounds nuw i8, ptr %0, i64 168
  store ptr %1, ptr %4, align 8, !tbaa !26
  %5 = getelementptr inbounds nuw i8, ptr %0, i64 148
  %6 = load i32, ptr %5, align 4, !tbaa !40
  %7 = getelementptr inbounds nuw i8, ptr %0, i64 176
  store i32 %6, ptr %7, align 8, !tbaa !27
  br label %8

8:                                                ; preds = %3, %2
  %9 = getelementptr inbounds nuw i8, ptr %0, i64 128
  br label %10

10:                                               ; preds = %12, %8
  %11 = load i8, ptr %9, align 8, !tbaa !47
  switch i8 %11, label %12 [
    i8 10, label %13
    i8 0, label %_ZN6google8protobuf2io9Tokenizer10TryConsumeEc.exit
  ]

12:                                               ; preds = %10
  tail call void @_ZN6google8protobuf2io9Tokenizer8NextCharEv(ptr noundef nonnull align 8 dereferenceable(192) %0)
  br label %10, !llvm.loop !56

13:                                               ; preds = %10
  tail call void @_ZN6google8protobuf2io9Tokenizer8NextCharEv(ptr noundef nonnull align 8 dereferenceable(192) %0)
  br label %_ZN6google8protobuf2io9Tokenizer10TryConsumeEc.exit

_ZN6google8protobuf2io9Tokenizer10TryConsumeEc.exit: ; preds = %10, %13
  br i1 %.not, label %35, label %14

14:                                               ; preds = %_ZN6google8protobuf2io9Tokenizer10TryConsumeEc.exit
  %15 = getelementptr inbounds nuw i8, ptr %0, i64 148
  %16 = load i32, ptr %15, align 4, !tbaa !40
  %17 = getelementptr inbounds nuw i8, ptr %0, i64 176
  %18 = load i32, ptr %17, align 8, !tbaa !27
  %.not.i = icmp eq i32 %16, %18
  br i1 %.not.i, label %_ZN6google8protobuf2io9Tokenizer13StopRecordingEv.exit, label %19

19:                                               ; preds = %14
  %20 = getelementptr inbounds nuw i8, ptr %0, i64 168
  %21 = load ptr, ptr %20, align 8, !tbaa !26
  %22 = sub nsw i32 %16, %18
  %23 = sext i32 %22 to i64
  %24 = getelementptr inbounds nuw i8, ptr %21, i64 8
  %25 = load i64, ptr %24, align 8, !tbaa !9
  %26 = sub i64 4611686018427387903, %25
  %27 = icmp ult i64 %26, %23
  br i1 %27, label %28, label %_ZNSt7__cxx1112basic_stringIcSt11char_traitsIcESaIcEE6appendEPKcm.exit.i

28:                                               ; preds = %19
  tail call void @_ZSt20__throw_length_errorPKc(ptr noundef nonnull @.str.30) #26
  unreachable

_ZNSt7__cxx1112basic_stringIcSt11char_traitsIcESaIcEE6appendEPKcm.exit.i: ; preds = %19
  %29 = getelementptr inbounds nuw i8, ptr %0, i64 136
  %30 = load ptr, ptr %29, align 8, !tbaa !39
  %31 = sext i32 %18 to i64
  %32 = getelementptr inbounds i8, ptr %30, i64 %31
  %33 = tail call noundef nonnull align 8 dereferenceable(32) ptr @_ZNSt7__cxx1112basic_stringIcSt11char_traitsIcESaIcEE9_M_appendEPKcm(ptr noundef nonnull align 8 dereferenceable(32) %21, ptr noundef %32, i64 noundef %23)
  br label %_ZN6google8protobuf2io9Tokenizer13StopRecordingEv.exit

_ZN6google8protobuf2io9Tokenizer13StopRecordingEv.exit: ; preds = %14, %_ZNSt7__cxx1112basic_stringIcSt11char_traitsIcESaIcEE6appendEPKcm.exit.i
  %34 = getelementptr inbounds nuw i8, ptr %0, i64 168
  store ptr null, ptr %34, align 8, !tbaa !26
  store i32 -1, ptr %17, align 8, !tbaa !27
  br label %35

35:                                               ; preds = %_ZN6google8protobuf2io9Tokenizer13StopRecordingEv.exit, %_ZN6google8protobuf2io9Tokenizer10TryConsumeEc.exit
  ret void
}